target datalayout = "e-m:e-p270:32:32-p271:32:32-p272:64:64-i64:64-i128:128-f80:128-n8:16:32:64-S128"
target triple = "x86_64-pc-linux-gnu"

%"class.pybind11::object" = type { %"class.pybind11::handle" }
%"class.pybind11::handle" = type { ptr }
%"class.pybind11::module_" = type { %"class.pybind11::object" }

@.str = private unnamed_addr constant [8 x i8] c"f_style\00", align 1
@.str.3 = private unnamed_addr constant [8 x i8] c"c_style\00", align 1

; Function Attrs: mustprogress uwtable
define hidden void @_ZN17eigen_tensor_test11test_moduleERN8pybind117module_E(ptr noundef nonnull align 8 dereferenceable(8) %0) #1 personality ptr @__gxx_personality_v0 {
  %2 = alloca ptr, align 8
  %3 = alloca %"class.pybind11::module_", align 8
  %4 = alloca %"class.pybind11::module_", align 8
  %5 = alloca ptr, align 8
  %6 = alloca i32, align 4
  store ptr %0, ptr %2, align 8
  %7 = load ptr, ptr %2, align 8
  call void @_ZN8pybind117module_13def_submoduleEPKcS2_(ptr dead_on_unwind writable sret(%"class.pybind11::module_") align 8 %3, ptr noundef nonnull align 8 dereferenceable(8) %7, ptr noundef @.str, ptr noundef null)
  %8 = load ptr, ptr %2, align 8
  invoke void @_ZN8pybind117module_13def_submoduleEPKcS2_(ptr dead_on_unwind writable sret(%"class.pybind11::module_") align 8 %4, ptr noundef nonnull align 8 dereferenceable(8) %8, ptr noundef @.str.3, ptr noundef null)
          to label %9 unwind label %12

9:                                                ; preds = %1
  invoke void @_ZN17eigen_tensor_test18init_tensor_moduleILi0EEEvRN8pybind117module_E(ptr noundef nonnull align 8 dereferenceable(8) %3)
          to label %10 unwind label %16

10:                                               ; preds = %9
  invoke void @_ZN17eigen_tensor_test18init_tensor_moduleILi1EEEvRN8pybind117module_E(ptr noundef nonnull align 8 dereferenceable(8) %4)
          to label %11 unwind label %16

11:                                               ; preds = %10
  call void @_ZN8pybind117module_D2Ev(ptr noundef nonnull align 8 dereferenceable(8) %4) #16
  call void @_ZN8pybind117module_D2Ev(ptr noundef nonnull align 8 dereferenceable(8) %3) #16
  ret void

12:                                               ; preds = %1
  %13 = landingpad { ptr, i32 }
          cleanup
  %14 = extractvalue { ptr, i32 } %13, 0
  store ptr %14, ptr %5, align 8
  %15 = extractvalue { ptr, i32 } %13, 1
  store i32 %15, ptr %6, align 4
  br label %20

16:                                               ; preds = %10, %9
  %17 = landingpad { ptr, i32 }
          cleanup
  %18 = extractvalue { ptr, i32 } %17, 0
  store ptr %18, ptr %5, align 8
  %19 = extractvalue { ptr, i32 } %17, 1
  store i32 %19, ptr %6, align 4
  call void @_ZN8pybind117module_D2Ev(ptr noundef nonnull align 8 dereferenceable(8) %4) #16
  br label %20

20:                                               ; preds = %16, %12
  call void @_ZN8pybind117module_D2Ev(ptr noundef nonnull align 8 dereferenceable(8) %3) #16
  br label %21

21:                                               ; preds = %20
  %22 = load ptr, ptr %5, align 8
  %23 = load i32, ptr %6, align 4
  %24 = insertvalue { ptr, i32 } poison, ptr %22, 0
  %25 = insertvalue { ptr, i32 } %24, i32 %23, 1
  resume { ptr, i32 } %25
}